target datalayout = "e-m:e-p270:32:32-p271:32:32-p272:64:64-i64:64-i128:128-f80:128-n8:16:32:64-S128"
target triple = "x86_64-pc-linux-gnu"

%struct.SDL_AtomicInt = type { i32 }
%struct.SDL_AudioSpec = type { i32, i32, i32 }
%struct.SDL_AudioDevice = type { ptr, ptr, %struct.SDL_AtomicInt, ptr, ptr, ptr, ptr, ptr, ptr, ptr, i32, ptr, %struct.SDL_AudioSpec, i32, ptr, %struct.SDL_AudioSpec, i32, i32, %struct.SDL_AtomicInt, %struct.SDL_AtomicInt, i8, i8, ptr, ptr, ptr, i32, ptr, i8, ptr, ptr }

@.str = private unnamed_addr constant [26 x i8] c"Parameter '%s' is invalid\00", align 1
@.str.13 = private unnamed_addr constant [5 x i8] c"spec\00", align 1

; Function Attrs: nounwind uwtable
define hidden zeroext i1 @SDL_GetAudioDeviceFormat_REAL(i32 noundef %0, ptr noundef %1, ptr noundef %2) #0 {
  %4 = alloca i1, align 1
  %5 = alloca i32, align 4
  %6 = alloca ptr, align 8
  %7 = alloca ptr, align 8
  %8 = alloca i8, align 1
  %9 = alloca ptr, align 8
  store i32 %0, ptr %5, align 4
  store ptr %1, ptr %6, align 8
  store ptr %2, ptr %7, align 8
  %10 = load ptr, ptr %6, align 8
  %11 = icmp ne ptr %10, null
  br i1 %11, label %14, label %12

12:                                               ; preds = %3
  %13 = call zeroext i1 (ptr, ...) @SDL_SetError_REAL(ptr noundef @.str, ptr noundef @.str.13)
  store i1 %13, ptr %4, align 1
  br label %35

14:                                               ; preds = %3
  call void @llvm.lifetime.start.p0(i64 1, ptr %8) #6
  store i8 0, ptr %8, align 1
  call void @llvm.lifetime.start.p0(i64 8, ptr %9) #6
  %15 = load i32, ptr %5, align 4
  %16 = call ptr @ObtainPhysicalAudioDeviceDefaultAllowed(i32 noundef %15)
  store ptr %16, ptr %9, align 8
  %17 = load ptr, ptr %9, align 8
  %18 = icmp ne ptr %17, null
  br i1 %18, label %19, label %31

19:                                               ; preds = %14
  %20 = load ptr, ptr %6, align 8
  %21 = load ptr, ptr %9, align 8
  %22 = getelementptr inbounds nuw %struct.SDL_AudioDevice, ptr %21, i32 0, i32 12
  call void @llvm.memcpy.p0.p0.i64(ptr align 4 %20, ptr align 8 %22, i64 12, i1 false)
  %23 = load ptr, ptr %7, align 8
  %24 = icmp ne ptr %23, null
  br i1 %24, label %25, label %30

25:                                               ; preds = %19
  %26 = load ptr, ptr %9, align 8
  %27 = getelementptr inbounds nuw %struct.SDL_AudioDevice, ptr %26, i32 0, i32 16
  %28 = load i32, ptr %27, align 4
  %29 = load ptr, ptr %7, align 8
  store i32 %28, ptr %29, align 4
  br label %30

30:                                               ; preds = %25, %19
  store i8 1, ptr %8, align 1
  br label %31

31:                                               ; preds = %30, %14
  %32 = load ptr, ptr %9, align 8
  call void @ReleaseAudioDevice(ptr noundef %32)
  %33 = load i8, ptr %8, align 1, !range !5, !noundef !6
  %34 = trunc i8 %33 to i1
  store i1 %34, ptr %4, align 1
  call void @llvm.lifetime.end.p0(i64 8, ptr %9) #6
  call void @llvm.lifetime.end.p0(i64 1, ptr %8) #6
  br label %35

35:                                               ; preds = %31, %12
  %36 = load i1, ptr %4, align 1
  ret i1 %36
}