; Function Attrs: nounwind uwtable
define hidden zeroext i1 @SDL_GetAudioDeviceFormat_REAL(i32 noundef %0, ptr noundef writeonly captures(address_is_null) %1, ptr noundef writeonly captures(address_is_null) %2) local_unnamed_addr #0 {
  %.not = icmp eq ptr %1, null
  br i1 %.not, label %4, label %6

4:                                                ; preds = %3
  %5 = tail call zeroext i1 (ptr, ...) @SDL_SetError_REAL(ptr noundef nonnull @.str, ptr noundef nonnull @.str.13) #14
  br label %.split

6:                                                ; preds = %3
  %7 = tail call fastcc ptr @ObtainPhysicalAudioDeviceDefaultAllowed(i32 noundef %0)
  %.not16.not = icmp eq ptr %7, null
  br i1 %.not16.not, label %.split, label %8

8:                                                ; preds = %6
  %9 = getelementptr inbounds nuw i8, ptr %7, i64 96
  tail call void @llvm.memcpy.p0.p0.i64(ptr noundef nonnull align 4 dereferenceable(12) %1, ptr noundef nonnull align 8 dereferenceable(12) %9, i64 12, i1 false)
  %.not17 = icmp eq ptr %2, null
  br i1 %.not17, label %.split12, label %10

10:                                               ; preds = %8
  %11 = getelementptr inbounds nuw i8, ptr %7, i64 132
  %12 = load i32, ptr %11, align 4
  store i32 %12, ptr %2, align 4
  br label %.split12

.split12:                                         ; preds = %8, %10
  tail call fastcc void @ReleaseAudioDevice(ptr noundef nonnull %7)
  br label %.split

.split:                                           ; preds = %6, %.split12, %4
  %.0 = phi i1 [ %5, %4 ], [ true, %.split12 ], [ false, %6 ]
  ret i1 %.0
}